target datalayout = "e-m:e-p270:32:32-p271:32:32-p272:64:64-i64:64-i128:128-f80:128-n8:16:32:64-S128"
target triple = "x86_64-pc-linux-gnu"

%"class.std::__cxx11::basic_string" = type { %"struct.std::__cxx11::basic_string<char>::_Alloc_hider", i64, %union.anon }
%"struct.std::__cxx11::basic_string<char>::_Alloc_hider" = type { ptr }
%union.anon = type { i64, [8 x i8] }
%"class.rocksdb::Slice" = type { ptr, i64 }
%"class.rocksdb::GetContext" = type { %"struct.rocksdb::GetContextStats", ptr, ptr, ptr, ptr, i32, %"class.rocksdb::Slice", %"class.rocksdb::PinnableSlice", ptr, ptr, ptr, i8, ptr, ptr, ptr, ptr, ptr, ptr, ptr, ptr, i8, i8, ptr, i64, ptr }
%"struct.rocksdb::GetContextStats" = type { i64, i64, i64, i64, i64, i64, i64, i64, i64, i64, i64, i64, i64, i64, i64, i64, i64, i64, i64, i64, i64, i64, i64, i64, i64, i64, i64, i64, i64 }
%"class.rocksdb::PinnableSlice" = type <{ %"class.rocksdb::Slice", %"class.rocksdb::Cleanable", %"class.std::__cxx11::basic_string", ptr, i8, [7 x i8] }>
%"class.rocksdb::Cleanable" = type { %"struct.rocksdb::Cleanable::Cleanup" }
%"struct.rocksdb::Cleanable::Cleanup" = type { ptr, ptr, ptr, ptr }

; Function Attrs: mustprogress nounwind uwtable
define void @_ZN7rocksdb10GetContext15MarkKeyMayExistEv(ptr noundef nonnull align 8 dereferenceable(512) %0) #3 align 2 {
  %2 = alloca ptr, align 8
  store ptr %0, ptr %2, align 8, !tbaa !52
  %3 = load ptr, ptr %2, align 8
  %4 = getelementptr inbounds nuw %"class.rocksdb::GetContext", ptr %3, i32 0, i32 5
  store i32 1, ptr %4, align 8, !tbaa !94
  %5 = getelementptr inbounds nuw %"class.rocksdb::GetContext", ptr %3, i32 0, i32 12
  %6 = load ptr, ptr %5, align 8, !tbaa !100
  %7 = icmp ne ptr %6, null
  br i1 %7, label %8, label %11

8:                                                ; preds = %1
  %9 = getelementptr inbounds nuw %"class.rocksdb::GetContext", ptr %3, i32 0, i32 12
  %10 = load ptr, ptr %9, align 8, !tbaa !100
  store i8 0, ptr %10, align 1, !tbaa !72
  br label %11

11:                                               ; preds = %8, %1
  ret void
}