; Function Attrs: mustprogress nofree norecurse nosync nounwind willreturn memory(write, argmem: readwrite, inaccessiblemem: none) uwtable
define void @_ZN7rocksdb10GetContext15MarkKeyMayExistEv(ptr noundef nonnull align 8 captures(none) dereferenceable(512) initializes((264, 268)) %0) local_unnamed_addr #8 align 2 {
  %2 = getelementptr inbounds nuw i8, ptr %0, i64 264
  store i32 1, ptr %2, align 8, !tbaa !45
  %3 = getelementptr inbounds nuw i8, ptr %0, i64 416
  %4 = load ptr, ptr %3, align 8, !tbaa !58
  %.not = icmp eq ptr %4, null
  br i1 %.not, label %6, label %5

5:                                                ; preds = %1
  store i8 0, ptr %4, align 1, !tbaa !86
  br label %6

6:                                                ; preds = %5, %1
  ret void
}